target datalayout = "e-m:e-p270:32:32-p271:32:32-p272:64:64-i64:64-i128:128-f80:128-n8:16:32:64-S128"
target triple = "x86_64-pc-linux-gnu"

@av1_convolve_2d_sobel_y_c.sobel_a = internal constant [3 x i16] [i16 1, i16 0, i16 -1], align 256
@av1_convolve_2d_sobel_y_c.sobel_b = internal constant [3 x i16] [i16 1, i16 2, i16 1], align 256

; Function Attrs: nounwind uwtable
define hidden void @av1_convolve_2d_sobel_y_c(ptr noundef %0, i32 noundef %1, ptr noundef %2, i32 noundef %3, i32 noundef %4, i32 noundef %5, i32 noundef %6, double noundef %7) #0 {
  %9 = alloca ptr, align 8
  %10 = alloca i32, align 4
  %11 = alloca ptr, align 8
  %12 = alloca i32, align 4
  %13 = alloca i32, align 4
  %14 = alloca i32, align 4
  %15 = alloca i32, align 4
  %16 = alloca double, align 8
  %17 = alloca [17792 x i16], align 16
  %18 = alloca i32, align 4
  %19 = alloca i32, align 4
  %20 = alloca i32, align 4
  %21 = alloca i32, align 4
  %22 = alloca i32, align 4
  %23 = alloca ptr, align 8
  %24 = alloca ptr, align 8
  %25 = alloca i32, align 4
  %26 = alloca i32, align 4
  %27 = alloca i16, align 2
  %28 = alloca i32, align 4
  %29 = alloca ptr, align 8
  %30 = alloca ptr, align 8
  %31 = alloca i32, align 4
  %32 = alloca i32, align 4
  %33 = alloca i16, align 2
  %34 = alloca i32, align 4
  store ptr %0, ptr %9, align 8
  store i32 %1, ptr %10, align 4
  store ptr %2, ptr %11, align 8
  store i32 %3, ptr %12, align 4
  store i32 %4, ptr %13, align 4
  store i32 %5, ptr %14, align 4
  store i32 %6, ptr %15, align 4
  store double %7, ptr %16, align 8
  store i32 3, ptr %18, align 4
  %35 = load i32, ptr %14, align 4
  %36 = add nsw i32 %35, 3
  %37 = sub nsw i32 %36, 1
  store i32 %37, ptr %19, align 4
  %38 = load i32, ptr %13, align 4
  store i32 %38, ptr %20, align 4
  store i32 1, ptr %21, align 4
  store i32 1, ptr %22, align 4
  %39 = load ptr, ptr %9, align 8
  %40 = load i32, ptr %10, align 4
  %41 = mul nsw i32 1, %40
  %42 = sext i32 %41 to i64
  %43 = sub i64 0, %42
  %44 = getelementptr inbounds i8, ptr %39, i64 %43
  store ptr %44, ptr %23, align 8
  %45 = load i32, ptr %15, align 4
  %46 = icmp ne i32 %45, 0
  %47 = select i1 %46, ptr @av1_convolve_2d_sobel_y_c.sobel_a, ptr @av1_convolve_2d_sobel_y_c.sobel_b
  store ptr %47, ptr %24, align 8
  store i32 0, ptr %25, align 4
  br label %48

48:                                               ; preds = %102, %8
  %49 = load i32, ptr %25, align 4
  %50 = load i32, ptr %19, align 4
  %51 = icmp slt i32 %49, %50
  br i1 %51, label %52, label %105

52:                                               ; preds = %48
  store i32 0, ptr %26, align 4
  br label %53

53:                                               ; preds = %98, %52
  %54 = load i32, ptr %26, align 4
  %55 = load i32, ptr %13, align 4
  %56 = icmp slt i32 %54, %55
  br i1 %56, label %57, label %101

57:                                               ; preds = %53
  store i16 0, ptr %27, align 2
  store i32 0, ptr %28, align 4
  br label %58

58:                                               ; preds = %86, %57
  %59 = load i32, ptr %28, align 4
  %60 = icmp slt i32 %59, 3
  br i1 %60, label %61, label %89

61:                                               ; preds = %58
  %62 = load ptr, ptr %24, align 8
  %63 = load i32, ptr %28, align 4
  %64 = sext i32 %63 to i64
  %65 = getelementptr inbounds i16, ptr %62, i64 %64
  %66 = load i16, ptr %65, align 2
  %67 = sext i16 %66 to i32
  %68 = load ptr, ptr %23, align 8
  %69 = load i32, ptr %25, align 4
  %70 = load i32, ptr %10, align 4
  %71 = mul nsw i32 %69, %70
  %72 = load i32, ptr %26, align 4
  %73 = add nsw i32 %71, %72
  %74 = sub nsw i32 %73, 1
  %75 = load i32, ptr %28, align 4
  %76 = add nsw i32 %74, %75
  %77 = sext i32 %76 to i64
  %78 = getelementptr inbounds i8, ptr %68, i64 %77
  %79 = load i8, ptr %78, align 1
  %80 = zext i8 %79 to i32
  %81 = mul nsw i32 %67, %80
  %82 = load i16, ptr %27, align 2
  %83 = sext i16 %82 to i32
  %84 = add nsw i32 %83, %81
  %85 = trunc i32 %84 to i16
  store i16 %85, ptr %27, align 2
  br label %86

86:                                               ; preds = %61
  %87 = load i32, ptr %28, align 4
  %88 = add nsw i32 %87, 1
  store i32 %88, ptr %28, align 4
  br label %58, !llvm.loop !11

89:                                               ; preds = %58
  %90 = load i16, ptr %27, align 2
  %91 = load i32, ptr %25, align 4
  %92 = load i32, ptr %20, align 4
  %93 = mul nsw i32 %91, %92
  %94 = load i32, ptr %26, align 4
  %95 = add nsw i32 %93, %94
  %96 = sext i32 %95 to i64
  %97 = getelementptr inbounds [17792 x i16], ptr %17, i64 0, i64 %96
  store i16 %90, ptr %97, align 2
  br label %98

98:                                               ; preds = %89
  %99 = load i32, ptr %26, align 4
  %100 = add nsw i32 %99, 1
  store i32 %100, ptr %26, align 4
  br label %53, !llvm.loop !12

101:                                              ; preds = %53
  br label %102

102:                                              ; preds = %101
  %103 = load i32, ptr %25, align 4
  %104 = add nsw i32 %103, 1
  store i32 %104, ptr %25, align 4
  br label %48, !llvm.loop !13

105:                                              ; preds = %48
  %106 = getelementptr inbounds [17792 x i16], ptr %17, i64 0, i64 0
  %107 = load i32, ptr %20, align 4
  %108 = mul nsw i32 1, %107
  %109 = sext i32 %108 to i64
  %110 = getelementptr inbounds i16, ptr %106, i64 %109
  store ptr %110, ptr %29, align 8
  %111 = load i32, ptr %15, align 4
  %112 = icmp ne i32 %111, 0
  %113 = select i1 %112, ptr @av1_convolve_2d_sobel_y_c.sobel_b, ptr @av1_convolve_2d_sobel_y_c.sobel_a
  store ptr %113, ptr %30, align 8
  store i32 0, ptr %31, align 4
  br label %114

114:                                              ; preds = %173, %105
  %115 = load i32, ptr %31, align 4
  %116 = load i32, ptr %14, align 4
  %117 = icmp slt i32 %115, %116
  br i1 %117, label %118, label %176

118:                                              ; preds = %114
  store i32 0, ptr %32, align 4
  br label %119

119:                                              ; preds = %169, %118
  %120 = load i32, ptr %32, align 4
  %121 = load i32, ptr %13, align 4
  %122 = icmp slt i32 %120, %121
  br i1 %122, label %123, label %172

123:                                              ; preds = %119
  store i16 0, ptr %33, align 2
  store i32 0, ptr %34, align 4
  br label %124

124:                                              ; preds = %152, %123
  %125 = load i32, ptr %34, align 4
  %126 = icmp slt i32 %125, 3
  br i1 %126, label %127, label %155

127:                                              ; preds = %124
  %128 = load ptr, ptr %30, align 8
  %129 = load i32, ptr %34, align 4
  %130 = sext i32 %129 to i64
  %131 = getelementptr inbounds i16, ptr %128, i64 %130
  %132 = load i16, ptr %131, align 2
  %133 = sext i16 %132 to i32
  %134 = load ptr, ptr %29, align 8
  %135 = load i32, ptr %31, align 4
  %136 = sub nsw i32 %135, 1
  %137 = load i32, ptr %34, align 4
  %138 = add nsw i32 %136, %137
  %139 = load i32, ptr %20, align 4
  %140 = mul nsw i32 %138, %139
  %141 = load i32, ptr %32, align 4
  %142 = add nsw i32 %140, %141
  %143 = sext i32 %142 to i64
  %144 = getelementptr inbounds i16, ptr %134, i64 %143
  %145 = load i16, ptr %144, align 2
  %146 = sext i16 %145 to i32
  %147 = mul nsw i32 %133, %146
  %148 = load i16, ptr %33, align 2
  %149 = sext i16 %148 to i32
  %150 = add nsw i32 %149, %147
  %151 = trunc i32 %150 to i16
  store i16 %151, ptr %33, align 2
  br label %152

152:                                              ; preds = %127
  %153 = load i32, ptr %34, align 4
  %154 = add nsw i32 %153, 1
  store i32 %154, ptr %34, align 4
  br label %124, !llvm.loop !14

155:                                              ; preds = %124
  %156 = load i16, ptr %33, align 2
  %157 = sext i16 %156 to i32
  %158 = sitofp i32 %157 to double
  %159 = load double, ptr %16, align 8
  %160 = fmul double %158, %159
  %161 = load ptr, ptr %11, align 8
  %162 = load i32, ptr %31, align 4
  %163 = load i32, ptr %12, align 4
  %164 = mul nsw i32 %162, %163
  %165 = load i32, ptr %32, align 4
  %166 = add nsw i32 %164, %165
  %167 = sext i32 %166 to i64
  %168 = getelementptr inbounds double, ptr %161, i64 %167
  store double %160, ptr %168, align 8
  br label %169

169:                                              ; preds = %155
  %170 = load i32, ptr %32, align 4
  %171 = add nsw i32 %170, 1
  store i32 %171, ptr %32, align 4
  br label %119, !llvm.loop !15

172:                                              ; preds = %119
  br label %173

173:                                              ; preds = %172
  %174 = load i32, ptr %31, align 4
  %175 = add nsw i32 %174, 1
  store i32 %175, ptr %31, align 4
  br label %114, !llvm.loop !16

176:                                              ; preds = %114
  ret void
}