; Function Attrs: nofree norecurse nosync nounwind memory(argmem: readwrite) uwtable
define hidden void @av1_convolve_2d_sobel_y_c(ptr noundef readonly captures(none) %0, i32 noundef %1, ptr noundef writeonly captures(none) %2, i32 noundef %3, i32 noundef %4, i32 noundef %5, i32 noundef %6, double noundef %7) local_unnamed_addr #0 {
  %9 = alloca [17792 x i16], align 16
  %10 = add i32 %5, 2
  %11 = sext i32 %1 to i64
  %12 = sub nsw i64 0, %11
  %13 = getelementptr inbounds i8, ptr %0, i64 %12
  %.not = icmp eq i32 %6, 0
  %14 = select i1 %.not, ptr @av1_convolve_2d_sobel_y_c.sobel_b, ptr @av1_convolve_2d_sobel_y_c.sobel_a
  %15 = icmp sgt i32 %5, -2
  br i1 %15, label %.preheader58.lr.ph, label %._crit_edge68

.preheader58.lr.ph:                               ; preds = %8
  %16 = icmp sgt i32 %4, 0
  br i1 %16, label %.preheader58.us.preheader, label %._crit_edge63

.preheader58.us.preheader:                        ; preds = %.preheader58.lr.ph
  %17 = zext nneg i32 %4 to i64
  %smax = tail call i32 @llvm.smax.i32(i32 %10, i32 1)
  %wide.trip.count80 = zext nneg i32 %smax to i64
  %wide.trip.count = zext nneg i32 %4 to i64
  br label %.preheader58.us

.preheader58.us:                                  ; preds = %.preheader58.us.preheader, %._crit_edge.us
  %indvars.iv77 = phi i64 [ 0, %.preheader58.us.preheader ], [ %indvars.iv.next78, %._crit_edge.us ]
  %18 = trunc i64 %indvars.iv77 to i32
  %19 = mul i32 %1, %18
  %20 = add i32 %19, -1
  %21 = mul nuw nsw i64 %indvars.iv77, %17
  br label %.preheader57.us

22:                                               ; preds = %25
  %23 = add nuw nsw i64 %indvars.iv73, %21
  %24 = getelementptr inbounds nuw [17792 x i16], ptr %9, i64 0, i64 %23
  store i16 %31, ptr %24, align 2
  %indvars.iv.next74 = add nuw nsw i64 %indvars.iv73, 1
  %exitcond76.not = icmp eq i64 %indvars.iv.next74, %wide.trip.count
  br i1 %exitcond76.not, label %._crit_edge.us, label %.preheader57.us, !llvm.loop !11

25:                                               ; preds = %.preheader57.us, %25
  %indvars.iv = phi i64 [ 0, %.preheader57.us ], [ %indvars.iv.next, %25 ]
  %.05459.us = phi i16 [ 0, %.preheader57.us ], [ %31, %25 ]
  %26 = getelementptr inbounds nuw i16, ptr %14, i64 %indvars.iv
  %27 = load i16, ptr %26, align 2
  %gep = getelementptr i8, ptr %invariant.gep, i64 %indvars.iv
  %28 = load i8, ptr %gep, align 1
  %29 = zext i8 %28 to i16
  %30 = mul i16 %27, %29
  %31 = add i16 %30, %.05459.us
  %indvars.iv.next = add nuw nsw i64 %indvars.iv, 1
  %exitcond.not = icmp eq i64 %indvars.iv.next, 3
  br i1 %exitcond.not, label %22, label %25, !llvm.loop !12

.preheader57.us:                                  ; preds = %.preheader58.us, %22
  %indvars.iv73 = phi i64 [ 0, %.preheader58.us ], [ %indvars.iv.next74, %22 ]
  %32 = trunc nuw nsw i64 %indvars.iv73 to i32
  %33 = add i32 %20, %32
  %34 = sext i32 %33 to i64
  %invariant.gep = getelementptr i8, ptr %13, i64 %34
  br label %25

._crit_edge.us:                                   ; preds = %22
  %indvars.iv.next78 = add nuw nsw i64 %indvars.iv77, 1
  %exitcond81.not = icmp eq i64 %indvars.iv.next78, %wide.trip.count80
  br i1 %exitcond81.not, label %._crit_edge63, label %.preheader58.us, !llvm.loop !13

._crit_edge63:                                    ; preds = %._crit_edge.us, %.preheader58.lr.ph
  %35 = sext i32 %4 to i64
  %36 = getelementptr inbounds i16, ptr %9, i64 %35
  %37 = select i1 %.not, ptr @av1_convolve_2d_sobel_y_c.sobel_a, ptr @av1_convolve_2d_sobel_y_c.sobel_b
  %38 = icmp sgt i32 %5, 0
  %39 = icmp sgt i32 %4, 0
  %or.cond = and i1 %38, %39
  br i1 %or.cond, label %.preheader56.us.preheader, label %._crit_edge68

.preheader56.us.preheader:                        ; preds = %._crit_edge63
  %40 = sext i32 %3 to i64
  %wide.trip.count93 = zext nneg i32 %5 to i64
  %wide.trip.count88 = zext nneg i32 %4 to i64
  br label %.preheader56.us

.preheader56.us:                                  ; preds = %.preheader56.us.preheader, %._crit_edge.us69
  %indvars.iv90 = phi i64 [ 0, %.preheader56.us.preheader ], [ %indvars.iv.next91, %._crit_edge.us69 ]
  %41 = add nsw i64 %indvars.iv90, -1
  %42 = mul nsw i64 %indvars.iv90, %40
  %invariant.gep98 = getelementptr double, ptr %2, i64 %42
  br label %.preheader.us

43:                                               ; preds = %46
  %44 = sitofp i16 %53 to double
  %45 = fmul double %7, %44
  %gep99 = getelementptr double, ptr %invariant.gep98, i64 %indvars.iv85
  store double %45, ptr %gep99, align 8
  %indvars.iv.next86 = add nuw nsw i64 %indvars.iv85, 1
  %exitcond89.not = icmp eq i64 %indvars.iv.next86, %wide.trip.count88
  br i1 %exitcond89.not, label %._crit_edge.us69, label %.preheader.us, !llvm.loop !14

46:                                               ; preds = %.preheader.us, %46
  %indvars.iv82 = phi i64 [ 0, %.preheader.us ], [ %indvars.iv.next83, %46 ]
  %.04864.us = phi i16 [ 0, %.preheader.us ], [ %53, %46 ]
  %47 = getelementptr inbounds nuw i16, ptr %37, i64 %indvars.iv82
  %48 = load i16, ptr %47, align 2
  %49 = add nsw i64 %41, %indvars.iv82
  %50 = mul nsw i64 %49, %35
  %gep97 = getelementptr i16, ptr %invariant.gep96, i64 %50
  %51 = load i16, ptr %gep97, align 2
  %52 = mul i16 %51, %48
  %53 = add i16 %52, %.04864.us
  %indvars.iv.next83 = add nuw nsw i64 %indvars.iv82, 1
  %exitcond84.not = icmp eq i64 %indvars.iv.next83, 3
  br i1 %exitcond84.not, label %43, label %46, !llvm.loop !15

.preheader.us:                                    ; preds = %.preheader56.us, %43
  %indvars.iv85 = phi i64 [ 0, %.preheader56.us ], [ %indvars.iv.next86, %43 ]
  %invariant.gep96 = getelementptr i16, ptr %36, i64 %indvars.iv85
  br label %46

._crit_edge.us69:                                 ; preds = %43
  %indvars.iv.next91 = add nuw nsw i64 %indvars.iv90, 1
  %exitcond94.not = icmp eq i64 %indvars.iv.next91, %wide.trip.count93
  br i1 %exitcond94.not, label %._crit_edge68, label %.preheader56.us, !llvm.loop !16

._crit_edge68:                                    ; preds = %._crit_edge.us69, %8, %._crit_edge63
  ret void
}